target datalayout = "e-m:e-p270:32:32-p271:32:32-p272:64:64-i64:64-i128:128-f80:128-n8:16:32:64-S128"
target triple = "x86_64-unknown-linux-gnu"

%class.macro_finder = type { ptr, ptr, ptr, %class.arith_util }
%class.arith_util = type { ptr, ptr }
%class.obj_ref = type { ptr, ptr }
%class.macro_manager = type { ptr, %class.macro_util, %class.obj_map.20, %class.obj_map.34, %class.obj_map.39, %class.ref_vector, %class.ref_vector.46, %class.ref_vector.51, %class.ref_vector.56, %class.obj_hashtable, %class.ref_vector, %class.obj_hashtable, %class.svector.62, %class.func_decl_dependencies }
%class.macro_util = type { ptr, %class.bv_util, %class.arith_util, %class.arith_rewriter, %class.bv_rewriter, ptr, ptr }
%class.bv_util = type { %class.bv_recognizers, ptr, ptr }
%class.bv_recognizers = type { i32 }
%class.arith_rewriter = type { %class.poly_rewriter.base, i8, i8, i8, i8, i8, i8, i8, i8, i32 }
%class.poly_rewriter.base = type <{ %class.arith_rewriter_core.base, [5 x i8], ptr, %class.obj_map, i8, i8, [2 x i8], i32, i8, i8, i8, i8 }>
%class.arith_rewriter_core.base = type <{ ptr, %class.arith_util, %class.scoped_ptr, i8, i8, i8 }>
%class.scoped_ptr = type { ptr }
%class.obj_map = type { %class.core_hashtable }
%class.core_hashtable = type <{ ptr, i32, i32, i32, [4 x i8] }>
%class.bv_rewriter = type <{ %class.poly_rewriter.base.1, [4 x i8], %class.mk_extract_proc, %class.arith_util, i8, i8, i8, i8, i8, i8, i8, i8, i8, i8, i8, i8, i8, [3 x i8] }>
%class.poly_rewriter.base.1 = type <{ %class.bv_rewriter_core, ptr, %class.obj_map, i8, i8, [2 x i8], i32, i8, i8, i8, i8 }>
%class.bv_rewriter_core = type { ptr, %class.bv_util, %class.obj_ref }
%class.mk_extract_proc = type { ptr, i32, i32, ptr, ptr }
%class.obj_map.20 = type { %class.core_hashtable.21 }
%class.core_hashtable.21 = type <{ ptr, i32, i32, i32, [4 x i8] }>
%class.obj_map.34 = type { %class.core_hashtable.35 }
%class.core_hashtable.35 = type <{ ptr, i32, i32, i32, [4 x i8] }>
%class.obj_map.39 = type { %class.core_hashtable.40 }
%class.core_hashtable.40 = type <{ ptr, i32, i32, i32, [4 x i8] }>
%class.ref_vector.46 = type { %class.ref_vector_core.47 }
%class.ref_vector_core.47 = type { %class.ref_manager_wrapper.48, %class.ptr_vector.49 }
%class.ref_manager_wrapper.48 = type { ptr }
%class.ptr_vector.49 = type { %class.vector.50 }
%class.vector.50 = type { ptr }
%class.ref_vector.51 = type { %class.ref_vector_core.52 }
%class.ref_vector_core.52 = type { %class.ref_manager_wrapper.53, %class.ptr_vector.54 }
%class.ref_manager_wrapper.53 = type { ptr }
%class.ptr_vector.54 = type { %class.vector.55 }
%class.vector.55 = type { ptr }
%class.ref_vector.56 = type { %class.ref_vector_core.57 }
%class.ref_vector_core.57 = type { %class.ref_manager_wrapper.58, %class.ptr_vector.13 }
%class.ref_manager_wrapper.58 = type { ptr }
%class.ptr_vector.13 = type { %class.vector.14 }
%class.vector.14 = type { ptr }
%class.ref_vector = type { %class.ref_vector_core }
%class.ref_vector_core = type { %class.ref_manager_wrapper, %class.ptr_vector.44 }
%class.ref_manager_wrapper = type { ptr }
%class.ptr_vector.44 = type { %class.vector.45 }
%class.vector.45 = type { ptr }
%class.obj_hashtable = type { %class.core_hashtable.base.61, [4 x i8] }
%class.core_hashtable.base.61 = type <{ ptr, i32, i32, i32 }>
%class.svector.62 = type { %class.vector.63 }
%class.vector.63 = type { ptr }
%class.func_decl_dependencies = type { ptr, %class.obj_map.64 }
%class.obj_map.64 = type { %class.core_hashtable.65 }
%class.core_hashtable.65 = type <{ ptr, i32, i32, i32, [4 x i8] }>

; Function Attrs: mustprogress nounwind uwtable
define linkonce_odr hidden noundef nonnull align 8 dereferenceable(320) ptr @_ZN13macro_manager8get_utilEv(ptr noundef nonnull align 8 dereferenceable(568) %this) #5 comdat align 2 {
entry:
  %this.addr = alloca ptr, align 8
  store ptr %this, ptr %this.addr, align 8
  %this1 = load ptr, ptr %this.addr, align 8
  %m_util = getelementptr inbounds %class.macro_manager, ptr %this1, i32 0, i32 1
  ret ptr %m_util
}

; Function Attrs: mustprogress uwtable
define hidden void @_ZN12macro_finderC2ER11ast_managerR13macro_manager(ptr noundef nonnull align 8 dereferenceable(40) %this, ptr noundef nonnull align 8 dereferenceable(976) %m, ptr noundef nonnull align 8 dereferenceable(568) %mm) unnamed_addr #4 align 2 {
entry:
  %this.addr = alloca ptr, align 8
  %m.addr = alloca ptr, align 8
  %mm.addr = alloca ptr, align 8
  store ptr %this, ptr %this.addr, align 8
  store ptr %m, ptr %m.addr, align 8
  store ptr %mm, ptr %mm.addr, align 8
  %this1 = load ptr, ptr %this.addr, align 8
  %m2 = getelementptr inbounds %class.macro_finder, ptr %this1, i32 0, i32 0
  %0 = load ptr, ptr %m.addr, align 8
  store ptr %0, ptr %m2, align 8
  %m_macro_manager = getelementptr inbounds %class.macro_finder, ptr %this1, i32 0, i32 1
  %1 = load ptr, ptr %mm.addr, align 8
  store ptr %1, ptr %m_macro_manager, align 8
  %m_util = getelementptr inbounds %class.macro_finder, ptr %this1, i32 0, i32 2
  %2 = load ptr, ptr %mm.addr, align 8
  %call = call noundef nonnull align 8 dereferenceable(320) ptr @_ZN13macro_manager8get_utilEv(ptr noundef nonnull align 8 dereferenceable(568) %2)
  store ptr %call, ptr %m_util, align 8
  %m_autil = getelementptr inbounds %class.macro_finder, ptr %this1, i32 0, i32 3
  %3 = load ptr, ptr %m.addr, align 8
  call void @_ZN10arith_utilC1ER11ast_manager(ptr noundef nonnull align 8 dereferenceable(16) %m_autil, ptr noundef nonnull align 8 dereferenceable(976) %3)
  ret void
}