; Function Attrs: mustprogress uwtable
define hidden void @_ZN12macro_finderC2ER11ast_managerR13macro_manager(ptr noundef nonnull align 8 dereferenceable(40) %this, ptr noundef nonnull align 8 dereferenceable(976) %m, ptr noundef nonnull align 8 dereferenceable(568) %mm) unnamed_addr #3 align 2 {
entry:
  store ptr %m, ptr %this, align 8
  %m_macro_manager = getelementptr inbounds i8, ptr %this, i64 8
  store ptr %mm, ptr %m_macro_manager, align 8
  %m_util = getelementptr inbounds i8, ptr %this, i64 16
  %m_util.i = getelementptr inbounds i8, ptr %mm, i64 8
  store ptr %m_util.i, ptr %m_util, align 8
  %m_autil = getelementptr inbounds i8, ptr %this, i64 24
  tail call void @_ZN10arith_utilC1ER11ast_manager(ptr noundef nonnull align 8 dereferenceable(16) %m_autil, ptr noundef nonnull align 8 dereferenceable(976) %m)
  ret void
}